target datalayout = "e-m:e-p270:32:32-p271:32:32-p272:64:64-i64:64-i128:128-f80:128-n8:16:32:64-S128"
target triple = "x86_64-unknown-linux-gnu"

%"class.icu_75::SearchIterator" = type { %"class.icu_75::UObject", ptr, ptr, %"class.icu_75::UnicodeString" }
%"class.icu_75::UObject" = type { ptr }
%"class.icu_75::UnicodeString" = type { %"class.icu_75::Replaceable", %"union.icu_75::UnicodeString::StackBufferOrFields" }
%"class.icu_75::Replaceable" = type { %"class.icu_75::UObject" }
%"union.icu_75::UnicodeString::StackBufferOrFields" = type { %struct.anon.0, [32 x i8] }
%struct.anon.0 = type { i16, i32, i32, ptr }
%struct.USearch = type { ptr, i32, i8, i8, i16, ptr, ptr, i32, i32, i8, i8 }

; Function Attrs: mustprogress nounwind uwtable
define noundef i32 @_ZNK6icu_7514SearchIterator12getAttributeE16USearchAttribute(ptr noundef nonnull align 8 dereferenceable(88) %this, i32 noundef %attribute) #1 align 2 {
entry:
  %retval = alloca i32, align 4
  %this.addr = alloca ptr, align 8
  %attribute.addr = alloca i32, align 4
  %value = alloca i16, align 2
  store ptr %this, ptr %this.addr, align 8
  store i32 %attribute, ptr %attribute.addr, align 4
  %this1 = load ptr, ptr %this.addr, align 8
  %0 = load i32, ptr %attribute.addr, align 4
  switch i32 %0, label %sw.default [
    i32 0, label %sw.bb
    i32 1, label %sw.bb2
    i32 2, label %sw.bb6
  ]

sw.bb:                                            ; preds = %entry
  %m_search_ = getelementptr inbounds %"class.icu_75::SearchIterator", ptr %this1, i32 0, i32 1
  %1 = load ptr, ptr %m_search_, align 8
  %isOverlap = getelementptr inbounds %struct.USearch, ptr %1, i32 0, i32 2
  %2 = load i8, ptr %isOverlap, align 4
  %tobool = icmp ne i8 %2, 0
  %cond = select i1 %tobool, i32 1, i32 0
  store i32 %cond, ptr %retval, align 4
  br label %return

sw.bb2:                                           ; preds = %entry
  %m_search_3 = getelementptr inbounds %"class.icu_75::SearchIterator", ptr %this1, i32 0, i32 1
  %3 = load ptr, ptr %m_search_3, align 8
  %isCanonicalMatch = getelementptr inbounds %struct.USearch, ptr %3, i32 0, i32 3
  %4 = load i8, ptr %isCanonicalMatch, align 1
  %tobool4 = icmp ne i8 %4, 0
  %cond5 = select i1 %tobool4, i32 1, i32 0
  store i32 %cond5, ptr %retval, align 4
  br label %return

sw.bb6:                                           ; preds = %entry
  %m_search_7 = getelementptr inbounds %"class.icu_75::SearchIterator", ptr %this1, i32 0, i32 1
  %5 = load ptr, ptr %m_search_7, align 8
  %elementComparisonType = getelementptr inbounds %struct.USearch, ptr %5, i32 0, i32 4
  %6 = load i16, ptr %elementComparisonType, align 2
  store i16 %6, ptr %value, align 2
  %7 = load i16, ptr %value, align 2
  %conv = sext i16 %7 to i32
  %cmp = icmp eq i32 %conv, 3
  br i1 %cmp, label %if.then, label %lor.lhs.false

lor.lhs.false:                                    ; preds = %sw.bb6
  %8 = load i16, ptr %value, align 2
  %conv8 = sext i16 %8 to i32
  %cmp9 = icmp eq i32 %conv8, 4
  br i1 %cmp9, label %if.then, label %if.else

if.then:                                          ; preds = %lor.lhs.false, %sw.bb6
  %9 = load i16, ptr %value, align 2
  %conv10 = sext i16 %9 to i32
  store i32 %conv10, ptr %retval, align 4
  br label %return

if.else:                                          ; preds = %lor.lhs.false
  store i32 2, ptr %retval, align 4
  br label %return

sw.default:                                       ; preds = %entry
  store i32 -1, ptr %retval, align 4
  br label %return

return:                                           ; preds = %sw.default, %if.else, %if.then, %sw.bb2, %sw.bb
  %10 = load i32, ptr %retval, align 4
  ret i32 %10
}