; Function Attrs: mustprogress nofree norecurse nosync nounwind willreturn memory(read, inaccessiblemem: none) uwtable
define noundef i32 @_ZNK6icu_7514SearchIterator12getAttributeE16USearchAttribute(ptr nocapture noundef nonnull readonly align 8 dereferenceable(88) %this, i32 noundef %attribute) local_unnamed_addr #9 align 2 {
entry:
  switch i32 %attribute, label %return [
    i32 0, label %sw.bb
    i32 1, label %sw.bb2
    i32 2, label %sw.bb6
  ]

sw.bb:                                            ; preds = %entry
  %m_search_ = getelementptr inbounds i8, ptr %this, i64 8
  %0 = load ptr, ptr %m_search_, align 8
  %isOverlap = getelementptr inbounds i8, ptr %0, i64 12
  %1 = load i8, ptr %isOverlap, align 4
  %tobool.not = icmp ne i8 %1, 0
  %cond = zext i1 %tobool.not to i32
  br label %return

sw.bb2:                                           ; preds = %entry
  %m_search_3 = getelementptr inbounds i8, ptr %this, i64 8
  %2 = load ptr, ptr %m_search_3, align 8
  %isCanonicalMatch = getelementptr inbounds i8, ptr %2, i64 13
  %3 = load i8, ptr %isCanonicalMatch, align 1
  %tobool4.not = icmp ne i8 %3, 0
  %cond5 = zext i1 %tobool4.not to i32
  br label %return

sw.bb6:                                           ; preds = %entry
  %m_search_7 = getelementptr inbounds i8, ptr %this, i64 8
  %4 = load ptr, ptr %m_search_7, align 8
  %elementComparisonType = getelementptr inbounds i8, ptr %4, i64 14
  %5 = load i16, ptr %elementComparisonType, align 2
  %6 = add i16 %5, -3
  %or.cond = icmp ult i16 %6, 2
  %narrow = select i1 %or.cond, i16 %5, i16 2
  %spec.select = sext i16 %narrow to i32
  br label %return

return:                                           ; preds = %sw.bb6, %entry, %sw.bb2, %sw.bb
  %retval.0 = phi i32 [ %cond5, %sw.bb2 ], [ %cond, %sw.bb ], [ -1, %entry ], [ %spec.select, %sw.bb6 ]
  ret i32 %retval.0
}